target datalayout = "e-m:e-p270:32:32-p271:32:32-p272:64:64-i64:64-i128:128-f80:128-n8:16:32:64-S128"
target triple = "x86_64-pc-linux-gnu"

%struct.Res_Sim_t_ = type { ptr, i32, i32, i32, i32, i32, i32, i32, i32, i32, i32, ptr, ptr, ptr, ptr, i32, i32, ptr, i64 }
%struct.Vec_Vec_t_ = type { i32, i32, ptr }
%struct.Vec_Ptr_t_ = type { i32, i32, ptr }

; Function Attrs: inlinehint nounwind uwtable
define internal ptr @Vec_PtrAlloc(i32 noundef %0) #4 {
  %2 = alloca i32, align 4
  %3 = alloca ptr, align 8
  store i32 %0, ptr %2, align 4, !tbaa !3
  call void @llvm.lifetime.start.p0(i64 8, ptr %3) #7
  %4 = call noalias ptr @malloc(i64 noundef 16) #8
  store ptr %4, ptr %3, align 8, !tbaa !44
  %5 = load i32, ptr %2, align 4, !tbaa !3
  %6 = icmp sgt i32 %5, 0
  br i1 %6, label %7, label %11

7:                                                ; preds = %1
  %8 = load i32, ptr %2, align 4, !tbaa !3
  %9 = icmp slt i32 %8, 8
  br i1 %9, label %10, label %11

10:                                               ; preds = %7
  store i32 8, ptr %2, align 4, !tbaa !3
  br label %11

11:                                               ; preds = %10, %7, %1
  %12 = load ptr, ptr %3, align 8, !tbaa !44
  %13 = getelementptr inbounds nuw %struct.Vec_Ptr_t_, ptr %12, i32 0, i32 1
  store i32 0, ptr %13, align 4, !tbaa !45
  %14 = load i32, ptr %2, align 4, !tbaa !3
  %15 = load ptr, ptr %3, align 8, !tbaa !44
  %16 = getelementptr inbounds nuw %struct.Vec_Ptr_t_, ptr %15, i32 0, i32 0
  store i32 %14, ptr %16, align 8, !tbaa !114
  %17 = load ptr, ptr %3, align 8, !tbaa !44
  %18 = getelementptr inbounds nuw %struct.Vec_Ptr_t_, ptr %17, i32 0, i32 0
  %19 = load i32, ptr %18, align 8, !tbaa !114
  %20 = icmp ne i32 %19, 0
  br i1 %20, label %21, label %28

21:                                               ; preds = %11
  %22 = load ptr, ptr %3, align 8, !tbaa !44
  %23 = getelementptr inbounds nuw %struct.Vec_Ptr_t_, ptr %22, i32 0, i32 0
  %24 = load i32, ptr %23, align 8, !tbaa !114
  %25 = sext i32 %24 to i64
  %26 = mul i64 8, %25
  %27 = call noalias ptr @malloc(i64 noundef %26) #8
  br label %29

28:                                               ; preds = %11
  br label %29

29:                                               ; preds = %28, %21
  %30 = phi ptr [ %27, %21 ], [ null, %28 ]
  %31 = load ptr, ptr %3, align 8, !tbaa !44
  %32 = getelementptr inbounds nuw %struct.Vec_Ptr_t_, ptr %31, i32 0, i32 2
  store ptr %30, ptr %32, align 8, !tbaa !61
  %33 = load ptr, ptr %3, align 8, !tbaa !44
  call void @llvm.lifetime.end.p0(i64 8, ptr %3) #7
  ret ptr %33
}

; Function Attrs: inlinehint nounwind uwtable
define internal ptr @Vec_VecAlloc(i32 noundef %0) #4 {
  %2 = alloca i32, align 4
  %3 = alloca ptr, align 8
  store i32 %0, ptr %2, align 4, !tbaa !3
  call void @llvm.lifetime.start.p0(i64 8, ptr %3) #7
  %4 = call noalias ptr @malloc(i64 noundef 16) #8
  store ptr %4, ptr %3, align 8, !tbaa !32
  %5 = load i32, ptr %2, align 4, !tbaa !3
  %6 = icmp sgt i32 %5, 0
  br i1 %6, label %7, label %11

7:                                                ; preds = %1
  %8 = load i32, ptr %2, align 4, !tbaa !3
  %9 = icmp slt i32 %8, 8
  br i1 %9, label %10, label %11

10:                                               ; preds = %7
  store i32 8, ptr %2, align 4, !tbaa !3
  br label %11

11:                                               ; preds = %10, %7, %1
  %12 = load ptr, ptr %3, align 8, !tbaa !32
  %13 = getelementptr inbounds nuw %struct.Vec_Vec_t_, ptr %12, i32 0, i32 1
  store i32 0, ptr %13, align 4, !tbaa !36
  %14 = load i32, ptr %2, align 4, !tbaa !3
  %15 = load ptr, ptr %3, align 8, !tbaa !32
  %16 = getelementptr inbounds nuw %struct.Vec_Vec_t_, ptr %15, i32 0, i32 0
  store i32 %14, ptr %16, align 8, !tbaa !115
  %17 = load ptr, ptr %3, align 8, !tbaa !32
  %18 = getelementptr inbounds nuw %struct.Vec_Vec_t_, ptr %17, i32 0, i32 0
  %19 = load i32, ptr %18, align 8, !tbaa !115
  %20 = icmp ne i32 %19, 0
  br i1 %20, label %21, label %28

21:                                               ; preds = %11
  %22 = load ptr, ptr %3, align 8, !tbaa !32
  %23 = getelementptr inbounds nuw %struct.Vec_Vec_t_, ptr %22, i32 0, i32 0
  %24 = load i32, ptr %23, align 8, !tbaa !115
  %25 = sext i32 %24 to i64
  %26 = mul i64 8, %25
  %27 = call noalias ptr @malloc(i64 noundef %26) #8
  br label %29

28:                                               ; preds = %11
  br label %29

29:                                               ; preds = %28, %21
  %30 = phi ptr [ %27, %21 ], [ null, %28 ]
  %31 = load ptr, ptr %3, align 8, !tbaa !32
  %32 = getelementptr inbounds nuw %struct.Vec_Vec_t_, ptr %31, i32 0, i32 2
  store ptr %30, ptr %32, align 8, !tbaa !33
  %33 = load ptr, ptr %3, align 8, !tbaa !32
  call void @llvm.lifetime.end.p0(i64 8, ptr %3) #7
  ret ptr %33
}

; Function Attrs: inlinehint nounwind uwtable
define internal ptr @Vec_PtrAllocArray(ptr noundef %0, i32 noundef %1) #4 {
  %3 = alloca ptr, align 8
  %4 = alloca i32, align 4
  %5 = alloca ptr, align 8
  store ptr %0, ptr %3, align 8, !tbaa !27
  store i32 %1, ptr %4, align 4, !tbaa !3
  call void @llvm.lifetime.start.p0(i64 8, ptr %5) #7
  %6 = call noalias ptr @malloc(i64 noundef 16) #8
  store ptr %6, ptr %5, align 8, !tbaa !44
  %7 = load i32, ptr %4, align 4, !tbaa !3
  %8 = load ptr, ptr %5, align 8, !tbaa !44
  %9 = getelementptr inbounds nuw %struct.Vec_Ptr_t_, ptr %8, i32 0, i32 1
  store i32 %7, ptr %9, align 4, !tbaa !45
  %10 = load i32, ptr %4, align 4, !tbaa !3
  %11 = load ptr, ptr %5, align 8, !tbaa !44
  %12 = getelementptr inbounds nuw %struct.Vec_Ptr_t_, ptr %11, i32 0, i32 0
  store i32 %10, ptr %12, align 8, !tbaa !114
  %13 = load ptr, ptr %3, align 8, !tbaa !27
  %14 = load ptr, ptr %5, align 8, !tbaa !44
  %15 = getelementptr inbounds nuw %struct.Vec_Ptr_t_, ptr %14, i32 0, i32 2
  store ptr %13, ptr %15, align 8, !tbaa !61
  %16 = load ptr, ptr %5, align 8, !tbaa !44
  call void @llvm.lifetime.end.p0(i64 8, ptr %5) #7
  ret ptr %16
}

; Function Attrs: inlinehint nounwind uwtable
define internal ptr @Vec_VecStart(i32 noundef %0) #4 {
  %2 = alloca i32, align 4
  %3 = alloca ptr, align 8
  %4 = alloca i32, align 4
  store i32 %0, ptr %2, align 4, !tbaa !3
  call void @llvm.lifetime.start.p0(i64 8, ptr %3) #7
  call void @llvm.lifetime.start.p0(i64 4, ptr %4) #7
  %5 = load i32, ptr %2, align 4, !tbaa !3
  %6 = call ptr @Vec_VecAlloc(i32 noundef %5)
  store ptr %6, ptr %3, align 8, !tbaa !32
  store i32 0, ptr %4, align 4, !tbaa !3
  br label %7

7:                                                ; preds = %19, %1
  %8 = load i32, ptr %4, align 4, !tbaa !3
  %9 = load i32, ptr %2, align 4, !tbaa !3
  %10 = icmp slt i32 %8, %9
  br i1 %10, label %11, label %22

11:                                               ; preds = %7
  %12 = call ptr @Vec_PtrAlloc(i32 noundef 0)
  %13 = load ptr, ptr %3, align 8, !tbaa !32
  %14 = getelementptr inbounds nuw %struct.Vec_Vec_t_, ptr %13, i32 0, i32 2
  %15 = load ptr, ptr %14, align 8, !tbaa !33
  %16 = load i32, ptr %4, align 4, !tbaa !3
  %17 = sext i32 %16 to i64
  %18 = getelementptr inbounds ptr, ptr %15, i64 %17
  store ptr %12, ptr %18, align 8, !tbaa !27
  br label %19

19:                                               ; preds = %11
  %20 = load i32, ptr %4, align 4, !tbaa !3
  %21 = add nsw i32 %20, 1
  store i32 %21, ptr %4, align 4, !tbaa !3
  br label %7, !llvm.loop !35

22:                                               ; preds = %7
  %23 = load i32, ptr %2, align 4, !tbaa !3
  %24 = load ptr, ptr %3, align 8, !tbaa !32
  %25 = getelementptr inbounds nuw %struct.Vec_Vec_t_, ptr %24, i32 0, i32 1
  store i32 %23, ptr %25, align 4, !tbaa !36
  %26 = load ptr, ptr %3, align 8, !tbaa !32
  call void @llvm.lifetime.end.p0(i64 4, ptr %4) #7
  call void @llvm.lifetime.end.p0(i64 8, ptr %3) #7
  ret ptr %26
}

; Function Attrs: inlinehint nounwind uwtable
define internal ptr @Vec_PtrAllocSimInfo(i32 noundef %0, i32 noundef %1) #4 {
  %3 = alloca i32, align 4
  %4 = alloca i32, align 4
  %5 = alloca ptr, align 8
  %6 = alloca ptr, align 8
  %7 = alloca i32, align 4
  store i32 %0, ptr %3, align 4, !tbaa !3
  store i32 %1, ptr %4, align 4, !tbaa !3
  call void @llvm.lifetime.start.p0(i64 8, ptr %5) #7
  call void @llvm.lifetime.start.p0(i64 8, ptr %6) #7
  call void @llvm.lifetime.start.p0(i64 4, ptr %7) #7
  %8 = load i32, ptr %4, align 4, !tbaa !3
  %9 = sext i32 %8 to i64
  %10 = mul i64 4, %9
  %11 = add i64 8, %10
  %12 = load i32, ptr %3, align 4, !tbaa !3
  %13 = sext i32 %12 to i64
  %14 = mul i64 %11, %13
  %15 = mul i64 1, %14
  %16 = call noalias ptr @malloc(i64 noundef %15) #8
  store ptr %16, ptr %5, align 8, !tbaa !27
  %17 = load ptr, ptr %5, align 8, !tbaa !27
  %18 = load i32, ptr %3, align 4, !tbaa !3
  %19 = sext i32 %18 to i64
  %20 = getelementptr inbounds ptr, ptr %17, i64 %19
  store ptr %20, ptr %6, align 8, !tbaa !28
  store i32 0, ptr %7, align 4, !tbaa !3
  br label %21

21:                                               ; preds = %36, %2
  %22 = load i32, ptr %7, align 4, !tbaa !3
  %23 = load i32, ptr %3, align 4, !tbaa !3
  %24 = icmp slt i32 %22, %23
  br i1 %24, label %25, label %39

25:                                               ; preds = %21
  %26 = load ptr, ptr %6, align 8, !tbaa !28
  %27 = load i32, ptr %7, align 4, !tbaa !3
  %28 = load i32, ptr %4, align 4, !tbaa !3
  %29 = mul nsw i32 %27, %28
  %30 = sext i32 %29 to i64
  %31 = getelementptr inbounds i32, ptr %26, i64 %30
  %32 = load ptr, ptr %5, align 8, !tbaa !27
  %33 = load i32, ptr %7, align 4, !tbaa !3
  %34 = sext i32 %33 to i64
  %35 = getelementptr inbounds ptr, ptr %32, i64 %34
  store ptr %31, ptr %35, align 8, !tbaa !27
  br label %36

36:                                               ; preds = %25
  %37 = load i32, ptr %7, align 4, !tbaa !3
  %38 = add nsw i32 %37, 1
  store i32 %38, ptr %7, align 4, !tbaa !3
  br label %21, !llvm.loop !30

39:                                               ; preds = %21
  %40 = load ptr, ptr %5, align 8, !tbaa !27
  %41 = load i32, ptr %3, align 4, !tbaa !3
  %42 = call ptr @Vec_PtrAllocArray(ptr noundef %40, i32 noundef %41)
  call void @llvm.lifetime.end.p0(i64 4, ptr %7) #7
  call void @llvm.lifetime.end.p0(i64 8, ptr %6) #7
  call void @llvm.lifetime.end.p0(i64 8, ptr %5) #7
  ret ptr %42
}

; Function Attrs: nounwind uwtable
define ptr @Res_SimAlloc(i32 noundef %0) #0 {
  %2 = alloca i32, align 4
  %3 = alloca ptr, align 8
  store i32 %0, ptr %2, align 4, !tbaa !3
  call void @llvm.lifetime.start.p0(i64 8, ptr %3) #7
  %4 = call noalias ptr @malloc(i64 noundef 104) #8
  store ptr %4, ptr %3, align 8, !tbaa !7
  %5 = load ptr, ptr %3, align 8, !tbaa !7
  call void @llvm.memset.p0.i64(ptr align 8 %5, i8 0, i64 104, i1 false)
  %6 = load i32, ptr %2, align 4, !tbaa !3
  %7 = load ptr, ptr %3, align 8, !tbaa !7
  %8 = getelementptr inbounds nuw %struct.Res_Sim_t_, ptr %7, i32 0, i32 4
  store i32 %6, ptr %8, align 4, !tbaa !10
  %9 = load ptr, ptr %3, align 8, !tbaa !7
  %10 = getelementptr inbounds nuw %struct.Res_Sim_t_, ptr %9, i32 0, i32 4
  %11 = load i32, ptr %10, align 4, !tbaa !10
  %12 = mul nsw i32 %11, 8
  %13 = sext i32 %12 to i64
  %14 = mul i64 %13, 4
  %15 = trunc i64 %14 to i32
  %16 = load ptr, ptr %3, align 8, !tbaa !7
  %17 = getelementptr inbounds nuw %struct.Res_Sim_t_, ptr %16, i32 0, i32 5
  store i32 %15, ptr %17, align 8, !tbaa !16
  %18 = load ptr, ptr %3, align 8, !tbaa !7
  %19 = getelementptr inbounds nuw %struct.Res_Sim_t_, ptr %18, i32 0, i32 5
  %20 = load i32, ptr %19, align 8, !tbaa !16
  %21 = load ptr, ptr %3, align 8, !tbaa !7
  %22 = getelementptr inbounds nuw %struct.Res_Sim_t_, ptr %21, i32 0, i32 6
  store i32 %20, ptr %22, align 4, !tbaa !17
  %23 = load ptr, ptr %3, align 8, !tbaa !7
  %24 = getelementptr inbounds nuw %struct.Res_Sim_t_, ptr %23, i32 0, i32 5
  %25 = load i32, ptr %24, align 8, !tbaa !16
  %26 = sext i32 %25 to i64
  %27 = mul i64 %26, 4
  %28 = trunc i64 %27 to i32
  %29 = load ptr, ptr %3, align 8, !tbaa !7
  %30 = getelementptr inbounds nuw %struct.Res_Sim_t_, ptr %29, i32 0, i32 8
  store i32 %28, ptr %30, align 4, !tbaa !18
  %31 = load ptr, ptr %3, align 8, !tbaa !7
  %32 = getelementptr inbounds nuw %struct.Res_Sim_t_, ptr %31, i32 0, i32 5
  %33 = load i32, ptr %32, align 8, !tbaa !16
  %34 = mul nsw i32 %33, 8
  %35 = sext i32 %34 to i64
  %36 = mul i64 %35, 4
  %37 = trunc i64 %36 to i32
  %38 = load ptr, ptr %3, align 8, !tbaa !7
  %39 = getelementptr inbounds nuw %struct.Res_Sim_t_, ptr %38, i32 0, i32 7
  store i32 %37, ptr %39, align 8, !tbaa !19
  %40 = load ptr, ptr %3, align 8, !tbaa !7
  %41 = getelementptr inbounds nuw %struct.Res_Sim_t_, ptr %40, i32 0, i32 5
  %42 = load i32, ptr %41, align 8, !tbaa !16
  %43 = load ptr, ptr %3, align 8, !tbaa !7
  %44 = getelementptr inbounds nuw %struct.Res_Sim_t_, ptr %43, i32 0, i32 4
  %45 = load i32, ptr %44, align 4, !tbaa !10
  %46 = mul nsw i32 %42, %45
  %47 = load ptr, ptr %3, align 8, !tbaa !7
  %48 = getelementptr inbounds nuw %struct.Res_Sim_t_, ptr %47, i32 0, i32 9
  store i32 %46, ptr %48, align 8, !tbaa !20
  %49 = load ptr, ptr %3, align 8, !tbaa !7
  %50 = getelementptr inbounds nuw %struct.Res_Sim_t_, ptr %49, i32 0, i32 5
  %51 = load i32, ptr %50, align 8, !tbaa !16
  %52 = load ptr, ptr %3, align 8, !tbaa !7
  %53 = getelementptr inbounds nuw %struct.Res_Sim_t_, ptr %52, i32 0, i32 5
  %54 = load i32, ptr %53, align 8, !tbaa !16
  %55 = mul nsw i32 %51, %54
  %56 = load ptr, ptr %3, align 8, !tbaa !7
  %57 = getelementptr inbounds nuw %struct.Res_Sim_t_, ptr %56, i32 0, i32 10
  store i32 %55, ptr %57, align 4, !tbaa !21
  %58 = load ptr, ptr %3, align 8, !tbaa !7
  %59 = getelementptr inbounds nuw %struct.Res_Sim_t_, ptr %58, i32 0, i32 6
  %60 = load i32, ptr %59, align 4, !tbaa !17
  %61 = call ptr @Vec_PtrAllocSimInfo(i32 noundef 1024, i32 noundef %60)
  %62 = load ptr, ptr %3, align 8, !tbaa !7
  %63 = getelementptr inbounds nuw %struct.Res_Sim_t_, ptr %62, i32 0, i32 11
  store ptr %61, ptr %63, align 8, !tbaa !22
  %64 = load ptr, ptr %3, align 8, !tbaa !7
  %65 = getelementptr inbounds nuw %struct.Res_Sim_t_, ptr %64, i32 0, i32 4
  %66 = load i32, ptr %65, align 4, !tbaa !10
  %67 = call ptr @Vec_PtrAllocSimInfo(i32 noundef 128, i32 noundef %66)
  %68 = load ptr, ptr %3, align 8, !tbaa !7
  %69 = getelementptr inbounds nuw %struct.Res_Sim_t_, ptr %68, i32 0, i32 12
  store ptr %67, ptr %69, align 8, !tbaa !23
  %70 = load ptr, ptr %3, align 8, !tbaa !7
  %71 = getelementptr inbounds nuw %struct.Res_Sim_t_, ptr %70, i32 0, i32 4
  %72 = load i32, ptr %71, align 4, !tbaa !10
  %73 = call ptr @Vec_PtrAllocSimInfo(i32 noundef 128, i32 noundef %72)
  %74 = load ptr, ptr %3, align 8, !tbaa !7
  %75 = getelementptr inbounds nuw %struct.Res_Sim_t_, ptr %74, i32 0, i32 13
  store ptr %73, ptr %75, align 8, !tbaa !24
  %76 = load ptr, ptr %3, align 8, !tbaa !7
  %77 = getelementptr inbounds nuw %struct.Res_Sim_t_, ptr %76, i32 0, i32 9
  %78 = load i32, ptr %77, align 8, !tbaa !20
  %79 = call ptr @Vec_PtrAllocSimInfo(i32 noundef 128, i32 noundef %78)
  %80 = load ptr, ptr %3, align 8, !tbaa !7
  %81 = getelementptr inbounds nuw %struct.Res_Sim_t_, ptr %80, i32 0, i32 14
  store ptr %79, ptr %81, align 8, !tbaa !25
  %82 = call ptr @Vec_VecStart(i32 noundef 16)
  %83 = load ptr, ptr %3, align 8, !tbaa !7
  %84 = getelementptr inbounds nuw %struct.Res_Sim_t_, ptr %83, i32 0, i32 17
  store ptr %82, ptr %84, align 8, !tbaa !26
  %85 = load ptr, ptr %3, align 8, !tbaa !7
  call void @llvm.lifetime.end.p0(i64 8, ptr %3) #7
  ret ptr %85
}