; Function Attrs: nofree nounwind memory(write, argmem: none, inaccessiblemem: readwrite) uwtable
define noalias noundef ptr @Res_SimAlloc(i32 noundef %0) local_unnamed_addr #0 {
  %calloc = tail call dereferenceable_or_null(104) ptr @calloc(i64 1, i64 104)
  %2 = getelementptr inbounds nuw i8, ptr %calloc, i64 20
  store i32 %0, ptr %2, align 4, !tbaa !3
  %3 = shl i32 %0, 5
  %4 = getelementptr inbounds nuw i8, ptr %calloc, i64 24
  store i32 %3, ptr %4, align 8, !tbaa !13
  %5 = getelementptr inbounds nuw i8, ptr %calloc, i64 28
  store i32 %3, ptr %5, align 4, !tbaa !14
  %6 = shl i32 %0, 7
  %7 = getelementptr inbounds nuw i8, ptr %calloc, i64 36
  store i32 %6, ptr %7, align 4, !tbaa !15
  %8 = shl i32 %0, 10
  %9 = getelementptr inbounds nuw i8, ptr %calloc, i64 32
  store i32 %8, ptr %9, align 8, !tbaa !16
  %10 = mul nsw i32 %3, %0
  %11 = getelementptr inbounds nuw i8, ptr %calloc, i64 40
  store i32 %10, ptr %11, align 8, !tbaa !17
  %12 = mul nsw i32 %3, %3
  %13 = getelementptr inbounds nuw i8, ptr %calloc, i64 44
  store i32 %12, ptr %13, align 4, !tbaa !18
  %14 = sext i32 %3 to i64
  %15 = shl nsw i64 %14, 12
  %16 = or disjoint i64 %15, 8192
  %17 = tail call noalias ptr @malloc(i64 noundef %16) #14
  %18 = getelementptr inbounds nuw i8, ptr %17, i64 8192
  br label %.lr.ph.i

.lr.ph.i:                                         ; preds = %.lr.ph.i, %1
  %indvars.iv.i = phi i64 [ 0, %1 ], [ %indvars.iv.next.i, %.lr.ph.i ]
  %19 = mul nsw i64 %indvars.iv.i, %14
  %20 = getelementptr inbounds i32, ptr %18, i64 %19
  %21 = getelementptr inbounds nuw ptr, ptr %17, i64 %indvars.iv.i
  store ptr %20, ptr %21, align 8, !tbaa !19
  %indvars.iv.next.i = add nuw nsw i64 %indvars.iv.i, 1
  %exitcond.not.i = icmp eq i64 %indvars.iv.next.i, 1024
  br i1 %exitcond.not.i, label %Vec_PtrAllocSimInfo.exit, label %.lr.ph.i, !llvm.loop !20

Vec_PtrAllocSimInfo.exit:                         ; preds = %.lr.ph.i
  %22 = tail call noalias dereferenceable_or_null(16) ptr @malloc(i64 noundef 16) #14
  %23 = getelementptr inbounds nuw i8, ptr %22, i64 4
  store i32 1024, ptr %23, align 4, !tbaa !22
  store i32 1024, ptr %22, align 8, !tbaa !24
  %24 = getelementptr inbounds nuw i8, ptr %22, i64 8
  store ptr %17, ptr %24, align 8, !tbaa !25
  %25 = getelementptr inbounds nuw i8, ptr %calloc, i64 48
  store ptr %22, ptr %25, align 8, !tbaa !26
  %26 = sext i32 %0 to i64
  %27 = shl nsw i64 %26, 9
  %28 = add nsw i64 %27, 1024
  %29 = tail call noalias ptr @malloc(i64 noundef %28) #14
  %30 = getelementptr inbounds nuw i8, ptr %29, i64 1024
  br label %.lr.ph.i26

.lr.ph.i26:                                       ; preds = %.lr.ph.i26, %Vec_PtrAllocSimInfo.exit
  %indvars.iv.i27 = phi i64 [ 0, %Vec_PtrAllocSimInfo.exit ], [ %indvars.iv.next.i28, %.lr.ph.i26 ]
  %31 = mul nsw i64 %indvars.iv.i27, %26
  %32 = getelementptr inbounds i32, ptr %30, i64 %31
  %33 = getelementptr inbounds nuw ptr, ptr %29, i64 %indvars.iv.i27
  store ptr %32, ptr %33, align 8, !tbaa !19
  %indvars.iv.next.i28 = add nuw nsw i64 %indvars.iv.i27, 1
  %exitcond.not.i29 = icmp eq i64 %indvars.iv.next.i28, 128
  br i1 %exitcond.not.i29, label %Vec_PtrAllocSimInfo.exit30, label %.lr.ph.i26, !llvm.loop !20

Vec_PtrAllocSimInfo.exit30:                       ; preds = %.lr.ph.i26
  %34 = tail call noalias dereferenceable_or_null(16) ptr @malloc(i64 noundef 16) #14
  %35 = getelementptr inbounds nuw i8, ptr %34, i64 4
  store i32 128, ptr %35, align 4, !tbaa !22
  store i32 128, ptr %34, align 8, !tbaa !24
  %36 = getelementptr inbounds nuw i8, ptr %34, i64 8
  store ptr %29, ptr %36, align 8, !tbaa !25
  %37 = getelementptr inbounds nuw i8, ptr %calloc, i64 56
  store ptr %34, ptr %37, align 8, !tbaa !27
  %38 = tail call noalias ptr @malloc(i64 noundef %28) #14
  %39 = getelementptr inbounds nuw i8, ptr %38, i64 1024
  br label %.lr.ph.i31

.lr.ph.i31:                                       ; preds = %.lr.ph.i31, %Vec_PtrAllocSimInfo.exit30
  %indvars.iv.i32 = phi i64 [ 0, %Vec_PtrAllocSimInfo.exit30 ], [ %indvars.iv.next.i33, %.lr.ph.i31 ]
  %40 = mul nsw i64 %indvars.iv.i32, %26
  %41 = getelementptr inbounds i32, ptr %39, i64 %40
  %42 = getelementptr inbounds nuw ptr, ptr %38, i64 %indvars.iv.i32
  store ptr %41, ptr %42, align 8, !tbaa !19
  %indvars.iv.next.i33 = add nuw nsw i64 %indvars.iv.i32, 1
  %exitcond.not.i34 = icmp eq i64 %indvars.iv.next.i33, 128
  br i1 %exitcond.not.i34, label %Vec_PtrAllocSimInfo.exit35, label %.lr.ph.i31, !llvm.loop !20

Vec_PtrAllocSimInfo.exit35:                       ; preds = %.lr.ph.i31
  %43 = tail call noalias dereferenceable_or_null(16) ptr @malloc(i64 noundef 16) #14
  %44 = getelementptr inbounds nuw i8, ptr %43, i64 4
  store i32 128, ptr %44, align 4, !tbaa !22
  store i32 128, ptr %43, align 8, !tbaa !24
  %45 = getelementptr inbounds nuw i8, ptr %43, i64 8
  store ptr %38, ptr %45, align 8, !tbaa !25
  %46 = getelementptr inbounds nuw i8, ptr %calloc, i64 64
  store ptr %43, ptr %46, align 8, !tbaa !28
  %47 = sext i32 %10 to i64
  %48 = shl nsw i64 %47, 9
  %49 = or disjoint i64 %48, 1024
  %50 = tail call noalias ptr @malloc(i64 noundef %49) #14
  %51 = getelementptr inbounds nuw i8, ptr %50, i64 1024
  br label %.lr.ph.i36

.lr.ph.i36:                                       ; preds = %.lr.ph.i36, %Vec_PtrAllocSimInfo.exit35
  %indvars.iv.i37 = phi i64 [ 0, %Vec_PtrAllocSimInfo.exit35 ], [ %indvars.iv.next.i38, %.lr.ph.i36 ]
  %52 = mul nsw i64 %indvars.iv.i37, %47
  %53 = getelementptr inbounds i32, ptr %51, i64 %52
  %54 = getelementptr inbounds nuw ptr, ptr %50, i64 %indvars.iv.i37
  store ptr %53, ptr %54, align 8, !tbaa !19
  %indvars.iv.next.i38 = add nuw nsw i64 %indvars.iv.i37, 1
  %exitcond.not.i39 = icmp eq i64 %indvars.iv.next.i38, 128
  br i1 %exitcond.not.i39, label %Vec_PtrAllocSimInfo.exit40, label %.lr.ph.i36, !llvm.loop !20

Vec_PtrAllocSimInfo.exit40:                       ; preds = %.lr.ph.i36
  %55 = tail call noalias dereferenceable_or_null(16) ptr @malloc(i64 noundef 16) #14
  %56 = getelementptr inbounds nuw i8, ptr %55, i64 4
  store i32 128, ptr %56, align 4, !tbaa !22
  store i32 128, ptr %55, align 8, !tbaa !24
  %57 = getelementptr inbounds nuw i8, ptr %55, i64 8
  store ptr %50, ptr %57, align 8, !tbaa !25
  %58 = getelementptr inbounds nuw i8, ptr %calloc, i64 72
  store ptr %55, ptr %58, align 8, !tbaa !29
  %59 = tail call noalias dereferenceable_or_null(16) ptr @malloc(i64 noundef 16) #14
  store i32 16, ptr %59, align 8, !tbaa !30
  %60 = tail call noalias dereferenceable_or_null(128) ptr @malloc(i64 noundef 128) #14
  %61 = getelementptr inbounds nuw i8, ptr %59, i64 8
  store ptr %60, ptr %61, align 8, !tbaa !32
  br label %62

62:                                               ; preds = %62, %Vec_PtrAllocSimInfo.exit40
  %indvars.iv.i41 = phi i64 [ 0, %Vec_PtrAllocSimInfo.exit40 ], [ %indvars.iv.next.i42, %62 ]
  %calloc.i.i = tail call noalias noundef dereferenceable_or_null(16) ptr @calloc(i64 1, i64 16)
  %63 = getelementptr inbounds nuw ptr, ptr %60, i64 %indvars.iv.i41
  store ptr %calloc.i.i, ptr %63, align 8, !tbaa !19
  %indvars.iv.next.i42 = add nuw nsw i64 %indvars.iv.i41, 1
  %exitcond.not.i43 = icmp eq i64 %indvars.iv.next.i42, 16
  br i1 %exitcond.not.i43, label %Vec_VecStart.exit, label %62, !llvm.loop !33

Vec_VecStart.exit:                                ; preds = %62
  %64 = getelementptr inbounds nuw i8, ptr %59, i64 4
  store i32 16, ptr %64, align 4, !tbaa !34
  %65 = getelementptr inbounds nuw i8, ptr %calloc, i64 88
  store ptr %59, ptr %65, align 8, !tbaa !35
  ret ptr %calloc
}